target datalayout = "e-m:e-p270:32:32-p271:32:32-p272:64:64-i64:64-i128:128-f80:128-n8:16:32:64-S128"
target triple = "x86_64-pc-linux-gnu"

%struct.psa_key_attributes_s = type { %struct.psa_core_key_attributes_t, ptr, i64 }
%struct.psa_core_key_attributes_t = type { i16, i16, i32, i32, %struct.psa_key_policy_s, i16 }
%struct.psa_key_policy_s = type { i32, i32, i32 }

; Function Attrs: nounwind uwtable
define hidden i32 @psa_driver_wrapper_verify_hash(ptr noundef %0, ptr noundef %1, i64 noundef %2, i32 noundef %3, ptr noundef %4, i64 noundef %5, ptr noundef %6, i64 noundef %7) #0 {
  %9 = alloca i32, align 4
  %10 = alloca ptr, align 8
  %11 = alloca ptr, align 8
  %12 = alloca i64, align 8
  %13 = alloca i32, align 4
  %14 = alloca ptr, align 8
  %15 = alloca i64, align 8
  %16 = alloca ptr, align 8
  %17 = alloca i64, align 8
  %18 = alloca i32, align 4
  %19 = alloca i32, align 4
  store ptr %0, ptr %10, align 8
  store ptr %1, ptr %11, align 8
  store i64 %2, ptr %12, align 8
  store i32 %3, ptr %13, align 4
  store ptr %4, ptr %14, align 8
  store i64 %5, ptr %15, align 8
  store ptr %6, ptr %16, align 8
  store i64 %7, ptr %17, align 8
  store i32 -151, ptr %18, align 4
  %20 = load ptr, ptr %10, align 8
  %21 = getelementptr inbounds %struct.psa_key_attributes_s, ptr %20, i32 0, i32 0
  %22 = getelementptr inbounds %struct.psa_core_key_attributes_t, ptr %21, i32 0, i32 2
  %23 = load i32, ptr %22, align 4
  %24 = lshr i32 %23, 8
  store i32 %24, ptr %19, align 4
  %25 = load i32, ptr %19, align 4
  switch i32 %25, label %36 [
    i32 0, label %26
  ]

26:                                               ; preds = %8
  %27 = load ptr, ptr %10, align 8
  %28 = load ptr, ptr %11, align 8
  %29 = load i64, ptr %12, align 8
  %30 = load i32, ptr %13, align 4
  %31 = load ptr, ptr %14, align 8
  %32 = load i64, ptr %15, align 8
  %33 = load ptr, ptr %16, align 8
  %34 = load i64, ptr %17, align 8
  %35 = call i32 @psa_verify_hash_builtin(ptr noundef %27, ptr noundef %28, i64 noundef %29, i32 noundef %30, ptr noundef %31, i64 noundef %32, ptr noundef %33, i64 noundef %34)
  store i32 %35, ptr %9, align 4
  br label %37

36:                                               ; preds = %8
  store i32 -135, ptr %9, align 4
  br label %37

37:                                               ; preds = %36, %26
  %38 = load i32, ptr %9, align 4
  ret i32 %38
}