; Function Attrs: nounwind uwtable
define hidden i32 @psa_driver_wrapper_verify_hash(ptr noundef %0, ptr noundef %1, i64 noundef %2, i32 noundef %3, ptr noundef %4, i64 noundef %5, ptr noundef %6, i64 noundef %7) local_unnamed_addr #1 {
  %9 = getelementptr inbounds nuw i8, ptr %0, i64 4
  %10 = load i32, ptr %9, align 4
  %cond = icmp ult i32 %10, 256
  br i1 %cond, label %11, label %13

11:                                               ; preds = %8
  %12 = tail call i32 @psa_verify_hash_builtin(ptr noundef nonnull %0, ptr noundef %1, i64 noundef %2, i32 noundef %3, ptr noundef %4, i64 noundef %5, ptr noundef %6, i64 noundef %7) #5
  br label %13

13:                                               ; preds = %8, %11
  %.0 = phi i32 [ %12, %11 ], [ -135, %8 ]
  ret i32 %.0
}